target datalayout = "e-m:e-p270:32:32-p271:32:32-p272:64:64-i64:64-i128:128-f80:128-n8:16:32:64-S128"
target triple = "x86_64-pc-linux-gnu"

%"class.g2o::MotionMeasurement" = type { %"class.Eigen::Matrix.3", double }
%"class.Eigen::Matrix.3" = type { %"class.Eigen::PlainObjectBase.4" }
%"class.Eigen::PlainObjectBase.4" = type { %"class.Eigen::DenseStorage.11" }
%"class.Eigen::DenseStorage.11" = type { %"struct.Eigen::internal::plain_array.12" }
%"struct.Eigen::internal::plain_array.12" = type { [3 x double] }

; Function Attrs: mustprogress nounwind uwtable
define linkonce_odr void @_ZN5Eigen8internal28check_static_allocation_sizeIdLi3EEEvv() #1 comdat {
  ret void
}

; Function Attrs: mustprogress uwtable
define linkonce_odr void @_ZN5Eigen8internal11plain_arrayIdLi3ELi0ELi0EEC2Ev(ptr noundef nonnull align 8 dereferenceable(24) %0) unnamed_addr #3 comdat align 2 {
  %2 = alloca ptr, align 8
  store ptr %0, ptr %2, align 8, !tbaa !106
  call void @_ZN5Eigen8internal28check_static_allocation_sizeIdLi3EEEvv()
  ret void
}

; Function Attrs: mustprogress nounwind uwtable
define linkonce_odr void @_ZN5Eigen9DenseBaseINS_6MatrixIdLi3ELi1ELi0ELi3ELi1EEEEC2Ev(ptr noundef nonnull align 1 dereferenceable(1) %0) unnamed_addr #1 comdat align 2 {
  %2 = alloca ptr, align 8
  store ptr %0, ptr %2, align 8, !tbaa !104
  ret void
}

; Function Attrs: mustprogress uwtable
define linkonce_odr void @_ZN5Eigen12DenseStorageIdLi3ELi3ELi1ELi0EEC2Ev(ptr noundef nonnull align 8 dereferenceable(24) %0) unnamed_addr #3 comdat align 2 {
  %2 = alloca ptr, align 8
  store ptr %0, ptr %2, align 8, !tbaa !74
  %3 = load ptr, ptr %2, align 8
  %4 = getelementptr inbounds nuw %"class.Eigen::DenseStorage.11", ptr %3, i32 0, i32 0
  call void @_ZN5Eigen8internal11plain_arrayIdLi3ELi0ELi0EEC2Ev(ptr noundef nonnull align 8 dereferenceable(24) %4)
  ret void
}

; Function Attrs: mustprogress uwtable
define linkonce_odr void @_ZN5Eigen10MatrixBaseINS_6MatrixIdLi3ELi1ELi0ELi3ELi1EEEEC2Ev(ptr noundef nonnull align 1 dereferenceable(1) %0) unnamed_addr #3 comdat align 2 {
  %2 = alloca ptr, align 8
  store ptr %0, ptr %2, align 8, !tbaa !102
  %3 = load ptr, ptr %2, align 8
  call void @_ZN5Eigen9DenseBaseINS_6MatrixIdLi3ELi1ELi0ELi3ELi1EEEEC2Ev(ptr noundef nonnull align 1 dereferenceable(1) %3)
  ret void
}

; Function Attrs: mustprogress nounwind uwtable
define linkonce_odr noundef ptr @_ZN5Eigen12DenseStorageIdLi3ELi3ELi1ELi0EE4dataEv(ptr noundef nonnull align 8 dereferenceable(24) %0) #1 comdat align 2 {
  %2 = alloca ptr, align 8
  store ptr %0, ptr %2, align 8, !tbaa !74
  %3 = load ptr, ptr %2, align 8
  %4 = getelementptr inbounds nuw %"class.Eigen::DenseStorage.11", ptr %3, i32 0, i32 0
  %5 = getelementptr inbounds nuw %"struct.Eigen::internal::plain_array.12", ptr %4, i32 0, i32 0
  %6 = getelementptr inbounds [3 x double], ptr %5, i64 0, i64 0
  ret ptr %6
}

; Function Attrs: inlinehint mustprogress nounwind uwtable
define linkonce_odr void @_ZN5Eigen15PlainObjectBaseINS_6MatrixIdLi3ELi1ELi0ELi3ELi1EEEE22_check_template_paramsEv() #7 comdat align 2 {
  ret void
}

; Function Attrs: inlinehint mustprogress uwtable
define linkonce_odr void @_ZN5Eigen15PlainObjectBaseINS_6MatrixIdLi3ELi1ELi0ELi3ELi1EEEEC2Ev(ptr noundef nonnull align 8 dereferenceable(24) %0) unnamed_addr #4 comdat align 2 {
  %2 = alloca ptr, align 8
  store ptr %0, ptr %2, align 8, !tbaa !69
  %3 = load ptr, ptr %2, align 8
  call void @_ZN5Eigen10MatrixBaseINS_6MatrixIdLi3ELi1ELi0ELi3ELi1EEEEC2Ev(ptr noundef nonnull align 1 dereferenceable(1) %3)
  %4 = getelementptr inbounds nuw %"class.Eigen::PlainObjectBase.4", ptr %3, i32 0, i32 0
  call void @_ZN5Eigen12DenseStorageIdLi3ELi3ELi1ELi0EEC2Ev(ptr noundef nonnull align 8 dereferenceable(24) %4)
  ret void
}

; Function Attrs: inlinehint mustprogress uwtable
define linkonce_odr void @_ZN5Eigen6MatrixIdLi3ELi1ELi0ELi3ELi1EEC2ERKdS3_S3_(ptr noundef nonnull align 8 dereferenceable(24) %0, ptr noundef nonnull align 8 dereferenceable(8) %1, ptr noundef nonnull align 8 dereferenceable(8) %2, ptr noundef nonnull align 8 dereferenceable(8) %3) unnamed_addr #4 comdat align 2 {
  %5 = alloca ptr, align 8
  %6 = alloca ptr, align 8
  %7 = alloca ptr, align 8
  %8 = alloca ptr, align 8
  store ptr %0, ptr %5, align 8, !tbaa !36
  store ptr %1, ptr %6, align 8, !tbaa !26
  store ptr %2, ptr %7, align 8, !tbaa !26
  store ptr %3, ptr %8, align 8, !tbaa !26
  %9 = load ptr, ptr %5, align 8
  call void @_ZN5Eigen15PlainObjectBaseINS_6MatrixIdLi3ELi1ELi0ELi3ELi1EEEEC2Ev(ptr noundef nonnull align 8 dereferenceable(24) %9)
  call void @_ZN5Eigen15PlainObjectBaseINS_6MatrixIdLi3ELi1ELi0ELi3ELi1EEEE22_check_template_paramsEv()
  %10 = load ptr, ptr %6, align 8, !tbaa !26
  %11 = load double, ptr %10, align 8, !tbaa !16
  %12 = getelementptr inbounds nuw %"class.Eigen::PlainObjectBase.4", ptr %9, i32 0, i32 0
  %13 = call noundef ptr @_ZN5Eigen12DenseStorageIdLi3ELi3ELi1ELi0EE4dataEv(ptr noundef nonnull align 8 dereferenceable(24) %12)
  %14 = getelementptr inbounds double, ptr %13, i64 0
  store double %11, ptr %14, align 8, !tbaa !16
  %15 = load ptr, ptr %7, align 8, !tbaa !26
  %16 = load double, ptr %15, align 8, !tbaa !16
  %17 = getelementptr inbounds nuw %"class.Eigen::PlainObjectBase.4", ptr %9, i32 0, i32 0
  %18 = call noundef ptr @_ZN5Eigen12DenseStorageIdLi3ELi3ELi1ELi0EE4dataEv(ptr noundef nonnull align 8 dereferenceable(24) %17)
  %19 = getelementptr inbounds double, ptr %18, i64 1
  store double %16, ptr %19, align 8, !tbaa !16
  %20 = load ptr, ptr %8, align 8, !tbaa !26
  %21 = load double, ptr %20, align 8, !tbaa !16
  %22 = getelementptr inbounds nuw %"class.Eigen::PlainObjectBase.4", ptr %9, i32 0, i32 0
  %23 = call noundef ptr @_ZN5Eigen12DenseStorageIdLi3ELi3ELi1ELi0EE4dataEv(ptr noundef nonnull align 8 dereferenceable(24) %22)
  %24 = getelementptr inbounds double, ptr %23, i64 2
  store double %21, ptr %24, align 8, !tbaa !16
  ret void
}

; Function Attrs: mustprogress uwtable
define void @_ZN3g2o17MotionMeasurementC2Edddd(ptr noundef nonnull align 8 dereferenceable(32) %0, double noundef %1, double noundef %2, double noundef %3, double noundef %4) unnamed_addr #3 align 2 {
  %6 = alloca ptr, align 8
  %7 = alloca double, align 8
  %8 = alloca double, align 8
  %9 = alloca double, align 8
  %10 = alloca double, align 8
  store ptr %0, ptr %6, align 8, !tbaa !28
  store double %1, ptr %7, align 8, !tbaa !16
  store double %2, ptr %8, align 8, !tbaa !16
  store double %3, ptr %9, align 8, !tbaa !16
  store double %4, ptr %10, align 8, !tbaa !16
  %11 = load ptr, ptr %6, align 8
  %12 = getelementptr inbounds nuw %"class.g2o::MotionMeasurement", ptr %11, i32 0, i32 0
  call void @_ZN5Eigen6MatrixIdLi3ELi1ELi0ELi3ELi1EEC2ERKdS3_S3_(ptr noundef nonnull align 8 dereferenceable(24) %12, ptr noundef nonnull align 8 dereferenceable(8) %7, ptr noundef nonnull align 8 dereferenceable(8) %8, ptr noundef nonnull align 8 dereferenceable(8) %9)
  %13 = getelementptr inbounds nuw %"class.g2o::MotionMeasurement", ptr %11, i32 0, i32 1
  %14 = load double, ptr %10, align 8, !tbaa !16
  store double %14, ptr %13, align 8, !tbaa !30
  ret void
}